; Function Attrs: mustprogress nofree norecurse nosync nounwind willreturn memory(read, argmem: readwrite, inaccessiblemem: none) uwtable
define void @_ZN32pxrInternal_v0_24__pxrReserved__27PcpNodeRef_ChildrenIteratorC2ERKNS_10PcpNodeRefEb(ptr noundef nonnull align 8 captures(none) dereferenceable(24) initializes((0, 24)) %0, ptr noundef nonnull readonly align 8 captures(none) dereferenceable(16) %1, i1 noundef zeroext %2) unnamed_addr #8 align 2 {
  tail call void @llvm.memcpy.p0.p0.i64(ptr noundef nonnull align 8 dereferenceable(16) %0, ptr noundef nonnull align 8 dereferenceable(16) %1, i64 16, i1 false)
  br i1 %2, label %14, label %4

4:                                                ; preds = %3
  %5 = load ptr, ptr %0, align 8
  %6 = getelementptr inbounds nuw i8, ptr %0, i64 8
  %7 = load i64, ptr %6, align 8
  %8 = getelementptr inbounds nuw i8, ptr %5, i64 16
  %9 = load ptr, ptr %8, align 8
  %10 = load ptr, ptr %9, align 8
  %11 = getelementptr inbounds %"struct.pxrInternal_v0_24__pxrReserved__::PcpPrimIndex_Graph::_Node", ptr %10, i64 %7, i32 3, i32 2
  %12 = load i16, ptr %11, align 4
  %13 = zext i16 %12 to i64
  br label %14

14:                                               ; preds = %3, %4
  %15 = phi i64 [ %13, %4 ], [ 65535, %3 ]
  %16 = getelementptr inbounds nuw i8, ptr %0, i64 16
  store i64 %15, ptr %16, align 8
  ret void
}